; Function Attrs: nounwind uwtable
define internal noundef i32 @lj_cf_ffi_fill(ptr noundef %0) #0 {
  %2 = alloca i32, align 4
  %3 = alloca i32, align 4
  %4 = alloca ptr, align 8
  %5 = getelementptr inbounds nuw i8, ptr %0, i64 16
  %6 = load i64, ptr %5, align 8, !tbaa !24
  %7 = inttoptr i64 %6 to ptr
  %8 = getelementptr inbounds nuw i8, ptr %7, i64 384
  %9 = load i64, ptr %8, align 8, !tbaa !41
  %10 = inttoptr i64 %9 to ptr
  %11 = getelementptr inbounds nuw i8, ptr %10, i64 16
  store ptr %0, ptr %11, align 8, !tbaa !42
  %12 = getelementptr inbounds nuw i8, ptr %0, i64 32
  %13 = load ptr, ptr %12, align 8, !tbaa !44
  call void @llvm.lifetime.start.p0(i64 8, ptr nonnull %4) #9
  %14 = getelementptr inbounds nuw i8, ptr %0, i64 40
  %15 = load ptr, ptr %14, align 8, !tbaa !4
  %.not.i = icmp ult ptr %13, %15
  br i1 %.not.i, label %ffi_checkptr.exit, label %16

16:                                               ; preds = %1
  tail call void @lj_err_arg(ptr noundef nonnull %0, i32 noundef 1, i32 noundef 551) #10
  unreachable

ffi_checkptr.exit:                                ; preds = %1
  %17 = load ptr, ptr %10, align 8, !tbaa !51
  %18 = getelementptr inbounds nuw i8, ptr %17, i64 408
  call void @lj_cconv_ct_tv(ptr noundef nonnull %10, ptr noundef nonnull %18, ptr noundef nonnull %4, ptr noundef nonnull %13, i32 noundef 256) #9
  %19 = load ptr, ptr %4, align 8, !tbaa !56
  call void @llvm.lifetime.end.p0(i64 8, ptr nonnull %4) #9
  %20 = load i64, ptr %5, align 8, !tbaa !24
  %21 = inttoptr i64 %20 to ptr
  %22 = getelementptr inbounds nuw i8, ptr %21, i64 384
  %23 = load i64, ptr %22, align 8, !tbaa !41
  %24 = inttoptr i64 %23 to ptr
  %25 = getelementptr inbounds nuw i8, ptr %24, i64 16
  store ptr %0, ptr %25, align 8, !tbaa !42
  %26 = load ptr, ptr %12, align 8, !tbaa !44
  %27 = getelementptr inbounds nuw i8, ptr %26, i64 8
  call void @llvm.lifetime.start.p0(i64 4, ptr nonnull %3) #9
  %28 = load ptr, ptr %14, align 8, !tbaa !4
  %.not.i9 = icmp ult ptr %27, %28
  br i1 %.not.i9, label %ffi_checkint.exit, label %29

29:                                               ; preds = %ffi_checkptr.exit
  call void @lj_err_arg(ptr noundef nonnull %0, i32 noundef 2, i32 noundef 551) #10
  unreachable

ffi_checkint.exit:                                ; preds = %ffi_checkptr.exit
  %30 = load ptr, ptr %24, align 8, !tbaa !51
  %31 = getelementptr inbounds nuw i8, ptr %30, i64 216
  call void @lj_cconv_ct_tv(ptr noundef nonnull %24, ptr noundef nonnull %31, ptr noundef nonnull %3, ptr noundef nonnull %27, i32 noundef 512) #9
  %32 = load i32, ptr %3, align 4, !tbaa !43
  call void @llvm.lifetime.end.p0(i64 4, ptr nonnull %3) #9
  %33 = load ptr, ptr %12, align 8, !tbaa !44
  %34 = getelementptr inbounds nuw i8, ptr %33, i64 16
  %35 = load ptr, ptr %14, align 8, !tbaa !4
  %36 = icmp ult ptr %34, %35
  br i1 %36, label %37, label %50

37:                                               ; preds = %ffi_checkint.exit
  %38 = load i64, ptr %34, align 8, !tbaa !23
  %39 = icmp eq i64 %38, -1
  br i1 %39, label %50, label %ffi_checkint.exit11

ffi_checkint.exit11:                              ; preds = %37
  %40 = load i64, ptr %5, align 8, !tbaa !24
  %41 = inttoptr i64 %40 to ptr
  %42 = getelementptr inbounds nuw i8, ptr %41, i64 384
  %43 = load i64, ptr %42, align 8, !tbaa !41
  %44 = inttoptr i64 %43 to ptr
  %45 = getelementptr inbounds nuw i8, ptr %44, i64 16
  store ptr %0, ptr %45, align 8, !tbaa !42
  call void @llvm.lifetime.start.p0(i64 4, ptr nonnull %2) #9
  %46 = load ptr, ptr %44, align 8, !tbaa !51
  %47 = getelementptr inbounds nuw i8, ptr %46, i64 216
  call void @lj_cconv_ct_tv(ptr noundef nonnull %44, ptr noundef nonnull %47, ptr noundef nonnull %2, ptr noundef nonnull %34, i32 noundef 768) #9
  %48 = load i32, ptr %2, align 4, !tbaa !43
  call void @llvm.lifetime.end.p0(i64 4, ptr nonnull %2) #9
  %49 = trunc i32 %48 to i8
  br label %50

50:                                               ; preds = %ffi_checkint.exit11, %37, %ffi_checkint.exit
  %.0 = phi i8 [ 0, %37 ], [ %49, %ffi_checkint.exit11 ], [ 0, %ffi_checkint.exit ]
  %51 = zext i32 %32 to i64
  call void @llvm.memset.p0.i64(ptr align 1 %19, i8 %.0, i64 %51, i1 false)
  ret i32 0
}